target datalayout = "e-m:e-p270:32:32-p271:32:32-p272:64:64-i64:64-i128:128-f80:128-n8:16:32:64-S128"
target triple = "x86_64-pc-linux-gnu"

%struct.UTrie2 = type { ptr, ptr, ptr, i32, i32, i16, i16, i32, i32, i32, i32, ptr, i32, i8, i8, i16, ptr }

; Function Attrs: inlinehint mustprogress nounwind uwtable
define internal noundef i32 @_ZL7u8IndexPK6UTrie2ii(ptr noundef %0, i32 noundef %1, i32 noundef %2) #4 {
  %4 = alloca ptr, align 8
  %5 = alloca i32, align 4
  %6 = alloca i32, align 4
  %7 = alloca i32, align 4
  store ptr %0, ptr %4, align 8, !tbaa !3
  store i32 %1, ptr %5, align 4, !tbaa !8
  store i32 %2, ptr %6, align 4, !tbaa !8
  call void @llvm.lifetime.start.p0(i64 4, ptr %7) #8
  %8 = load i32, ptr %5, align 4, !tbaa !8
  %9 = icmp ult i32 %8, 55296
  br i1 %9, label %10, label %25

10:                                               ; preds = %3
  %11 = load ptr, ptr %4, align 8, !tbaa !3
  %12 = getelementptr inbounds nuw %struct.UTrie2, ptr %11, i32 0, i32 0
  %13 = load ptr, ptr %12, align 8, !tbaa !16
  %14 = load i32, ptr %5, align 4, !tbaa !8
  %15 = ashr i32 %14, 5
  %16 = add nsw i32 0, %15
  %17 = sext i32 %16 to i64
  %18 = getelementptr inbounds i16, ptr %13, i64 %17
  %19 = load i16, ptr %18, align 2, !tbaa !17
  %20 = zext i16 %19 to i32
  %21 = shl i32 %20, 2
  %22 = load i32, ptr %5, align 4, !tbaa !8
  %23 = and i32 %22, 31
  %24 = add nsw i32 %21, %23
  br label %104

25:                                               ; preds = %3
  %26 = load i32, ptr %5, align 4, !tbaa !8
  %27 = icmp ule i32 %26, 65535
  br i1 %27, label %28, label %46

28:                                               ; preds = %25
  %29 = load ptr, ptr %4, align 8, !tbaa !3
  %30 = getelementptr inbounds nuw %struct.UTrie2, ptr %29, i32 0, i32 0
  %31 = load ptr, ptr %30, align 8, !tbaa !16
  %32 = load i32, ptr %5, align 4, !tbaa !8
  %33 = icmp sle i32 %32, 56319
  %34 = select i1 %33, i32 320, i32 0
  %35 = load i32, ptr %5, align 4, !tbaa !8
  %36 = ashr i32 %35, 5
  %37 = add nsw i32 %34, %36
  %38 = sext i32 %37 to i64
  %39 = getelementptr inbounds i16, ptr %31, i64 %38
  %40 = load i16, ptr %39, align 2, !tbaa !17
  %41 = zext i16 %40 to i32
  %42 = shl i32 %41, 2
  %43 = load i32, ptr %5, align 4, !tbaa !8
  %44 = and i32 %43, 31
  %45 = add nsw i32 %42, %44
  br label %102

46:                                               ; preds = %25
  %47 = load i32, ptr %5, align 4, !tbaa !8
  %48 = icmp ugt i32 %47, 1114111
  br i1 %48, label %49, label %62

49:                                               ; preds = %46
  %50 = load ptr, ptr %4, align 8, !tbaa !3
  %51 = getelementptr inbounds nuw %struct.UTrie2, ptr %50, i32 0, i32 2
  %52 = load ptr, ptr %51, align 8, !tbaa !21
  %53 = icmp eq ptr %52, null
  br i1 %53, label %54, label %58

54:                                               ; preds = %49
  %55 = load ptr, ptr %4, align 8, !tbaa !3
  %56 = getelementptr inbounds nuw %struct.UTrie2, ptr %55, i32 0, i32 3
  %57 = load i32, ptr %56, align 8, !tbaa !18
  br label %59

58:                                               ; preds = %49
  br label %59

59:                                               ; preds = %58, %54
  %60 = phi i32 [ %57, %54 ], [ 0, %58 ]
  %61 = add nsw i32 %60, 128
  br label %100

62:                                               ; preds = %46
  %63 = load i32, ptr %5, align 4, !tbaa !8
  %64 = load ptr, ptr %4, align 8, !tbaa !3
  %65 = getelementptr inbounds nuw %struct.UTrie2, ptr %64, i32 0, i32 9
  %66 = load i32, ptr %65, align 4, !tbaa !19
  %67 = icmp sge i32 %63, %66
  br i1 %67, label %68, label %72

68:                                               ; preds = %62
  %69 = load ptr, ptr %4, align 8, !tbaa !3
  %70 = getelementptr inbounds nuw %struct.UTrie2, ptr %69, i32 0, i32 10
  %71 = load i32, ptr %70, align 8, !tbaa !20
  br label %98

72:                                               ; preds = %62
  %73 = load ptr, ptr %4, align 8, !tbaa !3
  %74 = getelementptr inbounds nuw %struct.UTrie2, ptr %73, i32 0, i32 0
  %75 = load ptr, ptr %74, align 8, !tbaa !16
  %76 = load ptr, ptr %4, align 8, !tbaa !3
  %77 = getelementptr inbounds nuw %struct.UTrie2, ptr %76, i32 0, i32 0
  %78 = load ptr, ptr %77, align 8, !tbaa !16
  %79 = load i32, ptr %5, align 4, !tbaa !8
  %80 = ashr i32 %79, 11
  %81 = add nsw i32 2080, %80
  %82 = sext i32 %81 to i64
  %83 = getelementptr inbounds i16, ptr %78, i64 %82
  %84 = load i16, ptr %83, align 2, !tbaa !17
  %85 = zext i16 %84 to i32
  %86 = load i32, ptr %5, align 4, !tbaa !8
  %87 = ashr i32 %86, 5
  %88 = and i32 %87, 63
  %89 = add nsw i32 %85, %88
  %90 = sext i32 %89 to i64
  %91 = getelementptr inbounds i16, ptr %75, i64 %90
  %92 = load i16, ptr %91, align 2, !tbaa !17
  %93 = zext i16 %92 to i32
  %94 = shl i32 %93, 2
  %95 = load i32, ptr %5, align 4, !tbaa !8
  %96 = and i32 %95, 31
  %97 = add nsw i32 %94, %96
  br label %98

98:                                               ; preds = %72, %68
  %99 = phi i32 [ %71, %68 ], [ %97, %72 ]
  br label %100

100:                                              ; preds = %98, %59
  %101 = phi i32 [ %61, %59 ], [ %99, %98 ]
  br label %102

102:                                              ; preds = %100, %28
  %103 = phi i32 [ %45, %28 ], [ %101, %100 ]
  br label %104

104:                                              ; preds = %102, %10
  %105 = phi i32 [ %24, %10 ], [ %103, %102 ]
  store i32 %105, ptr %7, align 4, !tbaa !8
  %106 = load i32, ptr %7, align 4, !tbaa !8
  %107 = shl i32 %106, 3
  %108 = load i32, ptr %6, align 4, !tbaa !8
  %109 = or i32 %107, %108
  call void @llvm.lifetime.end.p0(i64 4, ptr %7) #8
  ret i32 %109
}

; Function Attrs: mustprogress uwtable
define i32 @utrie2_internalU8PrevIndex_77(ptr noundef %0, i32 noundef %1, ptr noundef %2, ptr noundef %3) #0 {
  %5 = alloca ptr, align 8
  %6 = alloca i32, align 4
  %7 = alloca ptr, align 8
  %8 = alloca ptr, align 8
  %9 = alloca i32, align 4
  %10 = alloca i32, align 4
  store ptr %0, ptr %5, align 8, !tbaa !3
  store i32 %1, ptr %6, align 4, !tbaa !8
  store ptr %2, ptr %7, align 8, !tbaa !30
  store ptr %3, ptr %8, align 8, !tbaa !30
  call void @llvm.lifetime.start.p0(i64 4, ptr %9) #8
  call void @llvm.lifetime.start.p0(i64 4, ptr %10) #8
  %11 = load ptr, ptr %8, align 8, !tbaa !30
  %12 = load ptr, ptr %7, align 8, !tbaa !30
  %13 = ptrtoint ptr %11 to i64
  %14 = ptrtoint ptr %12 to i64
  %15 = sub i64 %13, %14
  %16 = icmp sle i64 %15, 7
  br i1 %16, label %17, label %24

17:                                               ; preds = %4
  %18 = load ptr, ptr %8, align 8, !tbaa !30
  %19 = load ptr, ptr %7, align 8, !tbaa !30
  %20 = ptrtoint ptr %18 to i64
  %21 = ptrtoint ptr %19 to i64
  %22 = sub i64 %20, %21
  %23 = trunc i64 %22 to i32
  store i32 %23, ptr %10, align 4, !tbaa !8
  store i32 %23, ptr %9, align 4, !tbaa !8
  br label %27

24:                                               ; preds = %4
  store i32 7, ptr %10, align 4, !tbaa !8
  store i32 7, ptr %9, align 4, !tbaa !8
  %25 = load ptr, ptr %8, align 8, !tbaa !30
  %26 = getelementptr inbounds i8, ptr %25, i64 -7
  store ptr %26, ptr %7, align 8, !tbaa !30
  br label %27

27:                                               ; preds = %24, %17
  %28 = load ptr, ptr %7, align 8, !tbaa !30
  %29 = load i32, ptr %6, align 4, !tbaa !8
  %30 = call i32 @utf8_prevCharSafeBody_77(ptr noundef %28, i32 noundef 0, ptr noundef %9, i32 noundef %29, i8 noundef signext -1)
  store i32 %30, ptr %6, align 4, !tbaa !8
  %31 = load i32, ptr %10, align 4, !tbaa !8
  %32 = load i32, ptr %9, align 4, !tbaa !8
  %33 = sub nsw i32 %31, %32
  store i32 %33, ptr %9, align 4, !tbaa !8
  %34 = load ptr, ptr %5, align 8, !tbaa !3
  %35 = load i32, ptr %6, align 4, !tbaa !8
  %36 = load i32, ptr %9, align 4, !tbaa !8
  %37 = call noundef i32 @_ZL7u8IndexPK6UTrie2ii(ptr noundef %34, i32 noundef %35, i32 noundef %36)
  call void @llvm.lifetime.end.p0(i64 4, ptr %10) #8
  call void @llvm.lifetime.end.p0(i64 4, ptr %9) #8
  ret i32 %37
}