; Function Attrs: mustprogress uwtable
define i32 @utrie2_internalU8PrevIndex_77(ptr noundef readonly captures(none) %0, i32 noundef %1, ptr noundef %2, ptr noundef %3) local_unnamed_addr #1 {
  %5 = alloca i32, align 4
  call void @llvm.lifetime.start.p0(i64 4, ptr nonnull %5) #12
  %6 = ptrtoint ptr %3 to i64
  %7 = ptrtoint ptr %2 to i64
  %8 = sub i64 %6, %7
  %9 = icmp slt i64 %8, 8
  %10 = trunc i64 %8 to i32
  %11 = getelementptr inbounds i8, ptr %3, i64 -7
  %.sink = select i1 %9, i32 %10, i32 7
  %.09 = select i1 %9, ptr %2, ptr %11
  store i32 %.sink, ptr %5, align 4, !tbaa !19
  %12 = call i32 @utf8_prevCharSafeBody_77(ptr noundef %.09, i32 noundef 0, ptr noundef nonnull %5, i32 noundef %1, i8 noundef signext -1)
  %13 = load i32, ptr %5, align 4, !tbaa !19
  %14 = icmp ult i32 %12, 55296
  br i1 %14, label %15, label %25

15:                                               ; preds = %4
  %16 = load ptr, ptr %0, align 8, !tbaa !13
  %17 = lshr i32 %12, 5
  %18 = zext nneg i32 %17 to i64
  %19 = getelementptr inbounds nuw i16, ptr %16, i64 %18
  %20 = load i16, ptr %19, align 2, !tbaa !14
  %21 = zext i16 %20 to i32
  %22 = shl nuw nsw i32 %21, 2
  %23 = and i32 %12, 31
  %24 = add nuw nsw i32 %22, %23
  br label %_ZL7u8IndexPK6UTrie2ii.exit

25:                                               ; preds = %4
  %26 = icmp ult i32 %12, 65536
  br i1 %26, label %27, label %40

27:                                               ; preds = %25
  %28 = load ptr, ptr %0, align 8, !tbaa !13
  %29 = icmp samesign ult i32 %12, 56320
  %30 = select i1 %29, i32 320, i32 0
  %31 = lshr i32 %12, 5
  %32 = add nuw nsw i32 %30, %31
  %33 = zext nneg i32 %32 to i64
  %34 = getelementptr inbounds nuw i16, ptr %28, i64 %33
  %35 = load i16, ptr %34, align 2, !tbaa !14
  %36 = zext i16 %35 to i32
  %37 = shl nuw nsw i32 %36, 2
  %38 = and i32 %12, 31
  %39 = add nuw nsw i32 %37, %38
  br label %_ZL7u8IndexPK6UTrie2ii.exit

40:                                               ; preds = %25
  %41 = icmp ugt i32 %12, 1114111
  br i1 %41, label %42, label %50

42:                                               ; preds = %40
  %43 = getelementptr inbounds nuw i8, ptr %0, i64 16
  %44 = load ptr, ptr %43, align 8, !tbaa !18
  %45 = icmp eq ptr %44, null
  br i1 %45, label %46, label %_ZL7u8IndexPK6UTrie2ii.exit

46:                                               ; preds = %42
  %47 = getelementptr inbounds nuw i8, ptr %0, i64 24
  %48 = load i32, ptr %47, align 8, !tbaa !15
  %49 = add nsw i32 %48, 128
  br label %_ZL7u8IndexPK6UTrie2ii.exit

50:                                               ; preds = %40
  %51 = getelementptr inbounds nuw i8, ptr %0, i64 44
  %52 = load i32, ptr %51, align 4, !tbaa !16
  %.not.i = icmp slt i32 %12, %52
  br i1 %.not.i, label %56, label %53

53:                                               ; preds = %50
  %54 = getelementptr inbounds nuw i8, ptr %0, i64 48
  %55 = load i32, ptr %54, align 8, !tbaa !17
  br label %_ZL7u8IndexPK6UTrie2ii.exit

56:                                               ; preds = %50
  %57 = load ptr, ptr %0, align 8, !tbaa !13
  %58 = lshr i32 %12, 11
  %59 = zext nneg i32 %58 to i64
  %60 = getelementptr inbounds nuw i16, ptr %57, i64 %59
  %61 = getelementptr inbounds nuw i8, ptr %60, i64 4160
  %62 = load i16, ptr %61, align 2, !tbaa !14
  %63 = zext i16 %62 to i32
  %64 = lshr i32 %12, 5
  %65 = and i32 %64, 63
  %66 = add nuw nsw i32 %65, %63
  %67 = zext nneg i32 %66 to i64
  %68 = getelementptr inbounds nuw i16, ptr %57, i64 %67
  %69 = load i16, ptr %68, align 2, !tbaa !14
  %70 = zext i16 %69 to i32
  %71 = shl nuw nsw i32 %70, 2
  %72 = and i32 %12, 31
  %73 = add nuw nsw i32 %71, %72
  br label %_ZL7u8IndexPK6UTrie2ii.exit

_ZL7u8IndexPK6UTrie2ii.exit:                      ; preds = %15, %27, %42, %46, %53, %56
  %74 = phi i32 [ %24, %15 ], [ %39, %27 ], [ %55, %53 ], [ %73, %56 ], [ %49, %46 ], [ 128, %42 ]
  %75 = sub nsw i32 %.sink, %13
  %76 = shl i32 %74, 3
  %77 = or i32 %76, %75
  call void @llvm.lifetime.end.p0(i64 4, ptr nonnull %5) #12
  ret i32 %77
}